ccopy_reg
_reconstructor
p1
(cpsychopy.data
ExperimentHandler
p2
c__builtin__
object
p3
NtRp4
(dp5
S'originPath'
p6
S'/Users/casillas/academia/research/in_progress/dissertation/experiments/3_prod/experimentFiles/prodPicName/prodPicName.psyexp'
p7
sS'dataFileName'
p8
V/Users/casillas/academia/research/in_progress/dissertation/experiments/3_prod/experimentFiles/prodPicName/data/cynthia_prodShadow_2016_Jan_24_1054
p9
sS'runtimeInfo'
p10
NsS'name'
p11
S'prodShadow'
p12
sS'dataNames'
p13
(lp14
S'key_resp_2.keys'
p15
aS'key_resp_2.rt'
p16
asS'autoLog'
p17
I01
sS'extraInfo'
p18
(dp19
Vsession
p20
V001
p21
sVparticipant
p22
Vcynthia
p23
sS'frameRate'
p24
NsS'expName'
p25
g12
sS'date'
p26
V2016_Jan_24_1054
p27
sVcondition
p28
Vtuc
p29
ssS'loopsUnfinished'
p30
(lp31
sS'saveWideText'
p32
I01
sS'thisEntry'
p33
(dp34
sS'version'
p35
S''
sS'_paramNamesSoFar'
p36
(lp37
Vstatus
p38
aVstim
p39
asS'entries'
p40
(lp41
(dp42
g38
Vtarget
p43
sS'trials.thisIndex'
p44
cnumpy.core.multiarray
scalar
p45
(cnumpy
dtype
p46
(S'i4'
I0
I1
tRp47
(I3
S'<'
NNNI-1
I-1
I0
tbS'\x0e\x00\x00\x00'
tRp48
sg16
F0.96397686004638672
sg39
Vstim/gato.png
p49
sg22
g23
sS'trials.thisRepN'
p50
I0
sg25
g12
sg24
Nsg15
S'space'
p51
sS'trials.thisN'
p52
I0
sg20
g21
sS'trials.thisTrialN'
p53
I0
sg26
g27
sg28
g29
sa(dp54
g38
Vdistractor
p55
sS'trials.thisIndex'
p56
g45
(g47
S'\x05\x00\x00\x00'
tRp57
sg16
F0.61739587783813477
sg39
Vstim/libro.png
p58
sg22
g23
sS'trials.thisRepN'
p59
I0
sg25
g12
sg24
Nsg15
S'space'
p60
sS'trials.thisN'
p61
I1
sg20
g21
sS'trials.thisTrialN'
p62
I1
sg26
g27
sg28
g29
sa(dp63
g38
g43
sS'trials.thisIndex'
p64
g45
(g47
S'\t\x00\x00\x00'
tRp65
sg16
F0.9974970817565918
sg39
Vstim/bola.png
p66
sg22
g23
sS'trials.thisRepN'
p67
I0
sg25
g12
sg24
Nsg15
S'space'
p68
sS'trials.thisN'
p69
I2
sg20
g21
sS'trials.thisTrialN'
p70
I2
sg26
g27
sg28
g29
sa(dp71
g38
g55
sS'trials.thisIndex'
p72
g45
(g47
S'\x07\x00\x00\x00'
tRp73
sg16
F0.8476109504699707
sg39
Vstim/mochila.png
p74
sg22
g23
sS'trials.thisRepN'
p75
I0
sg25
g12
sg24
Nsg15
S'space'
p76
sS'trials.thisN'
p77
I3
sg20
g21
sS'trials.thisTrialN'
p78
I3
sg26
g27
sg28
g29
sa(dp79
g38
g55
sS'trials.thisIndex'
p80
g45
(g47
S'\x00\x00\x00\x00'
tRp81
sg16
F0.73731613159179688
sg39
Vstim/sombrero.png
p82
sg22
g23
sS'trials.thisRepN'
p83
I0
sg25
g12
sg24
Nsg15
S'space'
p84
sS'trials.thisN'
p85
I4
sg20
g21
sS'trials.thisTrialN'
p86
I4
sg26
g27
sg28
g29
sa(dp87
g38
g55
sS'trials.thisIndex'
p88
g45
(g47
S'\x03\x00\x00\x00'
tRp89
sg16
F0.61735105514526367
sg39
Vstim/lapiz.png
p90
sg22
g23
sS'trials.thisRepN'
p91
I0
sg25
g12
sg24
Nsg15
S'space'
p92
sS'trials.thisN'
p93
I5
sg20
g21
sS'trials.thisTrialN'
p94
I5
sg26
g27
sg28
g29
sa(dp95
g38
g55
sS'trials.thisIndex'
p96
g45
(g47
S'\x02\x00\x00\x00'
tRp97
sg16
F0.76436495780944824
sg39
Vstim/arbol.png
p98
sg22
g23
sS'trials.thisRepN'
p99
I0
sg25
g12
sg24
Nsg15
S'space'
p100
sS'trials.thisN'
p101
I6
sg20
g21
sS'trials.thisTrialN'
p102
I6
sg26
g27
sg28
g29
sa(dp103
g38
g43
sS'trials.thisIndex'
p104
g45
(g47
S'\x11\x00\x00\x00'
tRp105
sg16
F0.48379015922546387
sg39
Vstim/polo.png
p106
sg22
g23
sS'trials.thisRepN'
p107
I0
sg25
g12
sg24
Nsg15
S'space'
p108
sS'trials.thisN'
p109
I7
sg20
g21
sS'trials.thisTrialN'
p110
I7
sg26
g27
sg28
g29
sa(dp111
g38
g43
sS'trials.thisIndex'
p112
g45
(g47
S'\x13\x00\x00\x00'
tRp113
sg16
F1.4340920448303223
sg39
Vstim/topo.png
p114
sg22
g23
sS'trials.thisRepN'
p115
I0
sg25
g12
sg24
Nsg15
S'space'
p116
sS'trials.thisN'
p117
I8
sg20
g21
sS'trials.thisTrialN'
p118
I8
sg26
g27
sg28
g29
sa(dp119
g38
g43
sS'trials.thisIndex'
p120
g45
(g47
S'\r\x00\x00\x00'
tRp121
sg16
F3.4007070064544678
sg39
Vstim/dodo.png
p122
sg22
g23
sS'trials.thisRepN'
p123
I0
sg25
g12
sg24
Nsg15
S'space'
p124
sS'trials.thisN'
p125
I9
sg20
g21
sS'trials.thisTrialN'
p126
I9
sg26
g27
sg28
g29
sa(dp127
g38
g43
sS'trials.thisIndex'
p128
g45
(g47
S'\x0f\x00\x00\x00'
tRp129
sg16
F0.76702189445495605
sg39
Vstim/gota.png
p130
sg22
g23
sS'trials.thisRepN'
p131
I0
sg25
g12
sg24
Nsg15
S'space'
p132
sS'trials.thisN'
p133
I10
sg20
g21
sS'trials.thisTrialN'
p134
I10
sg26
g27
sg28
g29
sa(dp135
g38
g55
sS'trials.thisIndex'
p136
g45
(g47
S'\x01\x00\x00\x00'
tRp137
sg16
F0.73298788070678711
sg39
Vstim/sol.png
p138
sg22
g23
sS'trials.thisRepN'
p139
I0
sg25
g12
sg24
Nsg15
S'space'
p140
sS'trials.thisN'
p141
I11
sg20
g21
sS'trials.thisTrialN'
p142
I11
sg26
g27
sg28
g29
sa(dp143
g38
g55
sS'trials.thisIndex'
p144
g45
(g47
S'\x06\x00\x00\x00'
tRp145
sg16
F0.83358287811279297
sg39
Vstim/silla.png
p146
sg22
g23
sS'trials.thisRepN'
p147
I0
sg25
g12
sg24
Nsg15
S'space'
p148
sS'trials.thisN'
p149
I12
sg20
g21
sS'trials.thisTrialN'
p150
I12
sg26
g27
sg28
g29
sa(dp151
g38
g43
sS'trials.thisIndex'
p152
g45
(g47
S'\x08\x00\x00\x00'
tRp153
sg16
F3.0644271373748779
sg39
Vstim/bala.png
p154
sg22
g23
sS'trials.thisRepN'
p155
I0
sg25
g12
sg24
Nsg15
S'space'
p156
sS'trials.thisN'
p157
I13
sg20
g21
sS'trials.thisTrialN'
p158
I13
sg26
g27
sg28
g29
sa(dp159
g38
g43
sS'trials.thisIndex'
p160
g45
(g47
S'\n\x00\x00\x00'
tRp161
sg16
F0.96425008773803711
sg39
Vstim/caca.png
p162
sg22
g23
sS'trials.thisRepN'
p163
I0
sg25
g12
sg24
Nsg15
S'space'
p164
sS'trials.thisN'
p165
I14
sg20
g21
sS'trials.thisTrialN'
p166
I14
sg26
g27
sg28
g29
sa(dp167
g38
g43
sS'trials.thisIndex'
p168
g45
(g47
S'\x0b\x00\x00\x00'
tRp169
sg16
F1.0500710010528564
sg39
Vstim/coco.png
p170
sg22
g23
sS'trials.thisRepN'
p171
I0
sg25
g12
sg24
Nsg15
S'space'
p172
sS'trials.thisN'
p173
I15
sg20
g21
sS'trials.thisTrialN'
p174
I15
sg26
g27
sg28
g29
sa(dp175
g38
g43
sS'trials.thisIndex'
p176
g45
(g47
S'\x12\x00\x00\x00'
tRp177
sg16
F0.78380393981933594
sg39
Vstim/taco.png
p178
sg22
g23
sS'trials.thisRepN'
p179
I0
sg25
g12
sg24
Nsg15
S'space'
p180
sS'trials.thisN'
p181
I16
sg20
g21
sS'trials.thisTrialN'
p182
I16
sg26
g27
sg28
g29
sa(dp183
g38
g43
sS'trials.thisIndex'
p184
g45
(g47
S'\x10\x00\x00\x00'
tRp185
sg16
F1.0651919841766357
sg39
Vstim/palo.png
p186
sg22
g23
sS'trials.thisRepN'
p187
I0
sg25
g12
sg24
Nsg15
S'space'
p188
sS'trials.thisN'
p189
I17
sg20
g21
sS'trials.thisTrialN'
p190
I17
sg26
g27
sg28
g29
sa(dp191
g38
g43
sS'trials.thisIndex'
p192
g45
(g47
S'\x0c\x00\x00\x00'
tRp193
sg16
F1.367203950881958
sg39
Vstim/dado.png
p194
sg22
g23
sS'trials.thisRepN'
p195
I0
sg25
g12
sg24
Nsg15
S'space'
p196
sS'trials.thisN'
p197
I18
sg20
g21
sS'trials.thisTrialN'
p198
I18
sg26
g27
sg28
g29
sa(dp199
g38
g55
sS'trials.thisIndex'
p200
g45
(g47
S'\x04\x00\x00\x00'
tRp201
sg16
F0.8974449634552002
sg39
Vstim/manzana.png
p202
sg22
g23
sS'trials.thisRepN'
p203
I0
sg25
g12
sg24
Nsg15
S'space'
p204
sS'trials.thisN'
p205
I19
sg20
g21
sS'trials.thisTrialN'
p206
I19
sg26
g27
sg28
g29
sa(dp207
g38
g55
sS'trials.thisIndex'
p208
g45
(g47
S'\x07\x00\x00\x00'
tRp209
sg16
F0.91419601440429688
sg39
g74
sg22
g23
sS'trials.thisRepN'
p210
I1
sg25
g12
sg24
Nsg15
S'space'
p211
sS'trials.thisN'
p212
I20
sg20
g21
sS'trials.thisTrialN'
p213
I0
sg26
g27
sg28
g29
sa(dp214
g38
g55
sS'trials.thisIndex'
p215
g45
(g47
S'\x06\x00\x00\x00'
tRp216
sg16
F1.0804259777069092
sg39
g146
sg22
g23
sS'trials.thisRepN'
p217
I1
sg25
g12
sg24
Nsg15
S'space'
p218
sS'trials.thisN'
p219
I21
sg20
g21
sS'trials.thisTrialN'
p220
I1
sg26
g27
sg28
g29
sa(dp221
g38
g55
sS'trials.thisIndex'
p222
g45
(g47
S'\x02\x00\x00\x00'
tRp223
sg16
F0.77046608924865723
sg39
g98
sg22
g23
sS'trials.thisRepN'
p224
I1
sg25
g12
sg24
Nsg15
S'space'
p225
sS'trials.thisN'
p226
I22
sg20
g21
sS'trials.thisTrialN'
p227
I2
sg26
g27
sg28
g29
sa(dp228
g38
g43
sS'trials.thisIndex'
p229
g45
(g47
S'\n\x00\x00\x00'
tRp230
sg16
F0.79771304130554199
sg39
g162
sg22
g23
sS'trials.thisRepN'
p231
I1
sg25
g12
sg24
Nsg15
S'space'
p232
sS'trials.thisN'
p233
I23
sg20
g21
sS'trials.thisTrialN'
p234
I3
sg26
g27
sg28
g29
sa(dp235
g38
g43
sS'trials.thisIndex'
p236
g45
(g47
S'\x0e\x00\x00\x00'
tRp237
sg16
F0.88359498977661133
sg39
g49
sg22
g23
sS'trials.thisRepN'
p238
I1
sg25
g12
sg24
Nsg15
S'space'
p239
sS'trials.thisN'
p240
I24
sg20
g21
sS'trials.thisTrialN'
p241
I4
sg26
g27
sg28
g29
sa(dp242
g38
g43
sS'trials.thisIndex'
p243
g45
(g47
S'\x0b\x00\x00\x00'
tRp244
sg16
F0.89760494232177734
sg39
g170
sg22
g23
sS'trials.thisRepN'
p245
I1
sg25
g12
sg24
Nsg15
S'space'
p246
sS'trials.thisN'
p247
I25
sg20
g21
sS'trials.thisTrialN'
p248
I5
sg26
g27
sg28
g29
sa(dp249
g38
g43
sS'trials.thisIndex'
p250
g45
(g47
S'\x12\x00\x00\x00'
tRp251
sg16
F0.81815099716186523
sg39
g178
sg22
g23
sS'trials.thisRepN'
p252
I1
sg25
g12
sg24
Nsg15
S'space'
p253
sS'trials.thisN'
p254
I26
sg20
g21
sS'trials.thisTrialN'
p255
I6
sg26
g27
sg28
g29
sa(dp256
g38
g43
sS'trials.thisIndex'
p257
g45
(g47
S'\x0f\x00\x00\x00'
tRp258
sg16
F0.88697981834411621
sg39
g130
sg22
g23
sS'trials.thisRepN'
p259
I1
sg25
g12
sg24
Nsg15
S'space'
p260
sS'trials.thisN'
p261
I27
sg20
g21
sS'trials.thisTrialN'
p262
I7
sg26
g27
sg28
g29
sa(dp263
g38
g55
sS'trials.thisIndex'
p264
g45
(g47
S'\x04\x00\x00\x00'
tRp265
sg16
F0.97027993202209473
sg39
g202
sg22
g23
sS'trials.thisRepN'
p266
I1
sg25
g12
sg24
Nsg15
S'space'
p267
sS'trials.thisN'
p268
I28
sg20
g21
sS'trials.thisTrialN'
p269
I8
sg26
g27
sg28
g29
sa(dp270
g38
g43
sS'trials.thisIndex'
p271
g45
(g47
S'\x13\x00\x00\x00'
tRp272
sg16
F0.95107007026672363
sg39
g114
sg22
g23
sS'trials.thisRepN'
p273
I1
sg25
g12
sg24
Nsg15
S'space'
p274
sS'trials.thisN'
p275
I29
sg20
g21
sS'trials.thisTrialN'
p276
I9
sg26
g27
sg28
g29
sa(dp277
g38
g55
sS'trials.thisIndex'
p278
g45
(g47
S'\x03\x00\x00\x00'
tRp279
sg16
F1.0004651546478271
sg39
g90
sg22
g23
sS'trials.thisRepN'
p280
I1
sg25
g12
sg24
Nsg15
S'space'
p281
sS'trials.thisN'
p282
I30
sg20
g21
sS'trials.thisTrialN'
p283
I10
sg26
g27
sg28
g29
sa(dp284
g38
g55
sS'trials.thisIndex'
p285
g45
(g47
S'\x01\x00\x00\x00'
tRp286
sg16
F0.73364996910095215
sg39
g138
sg22
g23
sS'trials.thisRepN'
p287
I1
sg25
g12
sg24
Nsg15
S'space'
p288
sS'trials.thisN'
p289
I31
sg20
g21
sS'trials.thisTrialN'
p290
I11
sg26
g27
sg28
g29
sa(dp291
g38
g55
sS'trials.thisIndex'
p292
g45
(g47
S'\x05\x00\x00\x00'
tRp293
sg16
F0.73717093467712402
sg39
g58
sg22
g23
sS'trials.thisRepN'
p294
I1
sg25
g12
sg24
Nsg15
S'space'
p295
sS'trials.thisN'
p296
I32
sg20
g21
sS'trials.thisTrialN'
p297
I12
sg26
g27
sg28
g29
sa(dp298
g38
g43
sS'trials.thisIndex'
p299
g45
(g47
S'\r\x00\x00\x00'
tRp300
sg16
F1.7338368892669678
sg39
g122
sg22
g23
sS'trials.thisRepN'
p301
I1
sg25
g12
sg24
Nsg15
S'space'
p302
sS'trials.thisN'
p303
I33
sg20
g21
sS'trials.thisTrialN'
p304
I13
sg26
g27
sg28
g29
sa(dp305
g38
g43
sS'trials.thisIndex'
p306
g45
(g47
S'\x08\x00\x00\x00'
tRp307
sg16
F0.66727519035339355
sg39
g154
sg22
g23
sS'trials.thisRepN'
p308
I1
sg25
g12
sg24
Nsg15
S'space'
p309
sS'trials.thisN'
p310
I34
sg20
g21
sS'trials.thisTrialN'
p311
I14
sg26
g27
sg28
g29
sa(dp312
g38
g55
sS'trials.thisIndex'
p313
g45
(g47
S'\x00\x00\x00\x00'
tRp314
sg16
F0.91726088523864746
sg39
g82
sg22
g23
sS'trials.thisRepN'
p315
I1
sg25
g12
sg24
Nsg15
S'space'
p316
sS'trials.thisN'
p317
I35
sg20
g21
sS'trials.thisTrialN'
p318
I15
sg26
g27
sg28
g29
sa(dp319
g38
g43
sS'trials.thisIndex'
p320
g45
(g47
S'\x10\x00\x00\x00'
tRp321
sg16
F1.0509371757507324
sg39
g186
sg22
g23
sS'trials.thisRepN'
p322
I1
sg25
g12
sg24
Nsg15
S'space'
p323
sS'trials.thisN'
p324
I36
sg20
g21
sS'trials.thisTrialN'
p325
I16
sg26
g27
sg28
g29
sa(dp326
g38
g43
sS'trials.thisIndex'
p327
g45
(g47
S'\t\x00\x00\x00'
tRp328
sg16
F0.78666496276855469
sg39
g66
sg22
g23
sS'trials.thisRepN'
p329
I1
sg25
g12
sg24
Nsg15
S'space'
p330
sS'trials.thisN'
p331
I37
sg20
g21
sS'trials.thisTrialN'
p332
I17
sg26
g27
sg28
g29
sa(dp333
g38
g43
sS'trials.thisIndex'
p334
g45
(g47
S'\x11\x00\x00\x00'
tRp335
sg16
F0.88003706932067871
sg39
g106
sg22
g23
sS'trials.thisRepN'
p336
I1
sg25
g12
sg24
Nsg15
S'space'
p337
sS'trials.thisN'
p338
I38
sg20
g21
sS'trials.thisTrialN'
p339
I18
sg26
g27
sg28
g29
sa(dp340
g38
g43
sS'trials.thisIndex'
p341
g45
(g47
S'\x0c\x00\x00\x00'
tRp342
sg16
F0.75081586837768555
sg39
g194
sg22
g23
sS'trials.thisRepN'
p343
I1
sg25
g12
sg24
Nsg15
S'space'
p344
sS'trials.thisN'
p345
I39
sg20
g21
sS'trials.thisTrialN'
p346
I19
sg26
g27
sg28
g29
sa(dp347
g38
g55
sS'trials.thisIndex'
p348
g45
(g47
S'\x07\x00\x00\x00'
tRp349
sg16
F0.93339204788208008
sg39
g74
sg22
g23
sS'trials.thisRepN'
p350
I2
sg25
g12
sg24
Nsg15
S'space'
p351
sS'trials.thisN'
p352
I40
sg20
g21
sS'trials.thisTrialN'
p353
I0
sg26
g27
sg28
g29
sa(dp354
g38
g55
sS'trials.thisIndex'
p355
g45
(g47
S'\x03\x00\x00\x00'
tRp356
sg16
F0.98374390602111816
sg39
g90
sg22
g23
sS'trials.thisRepN'
p357
I2
sg25
g12
sg24
Nsg15
S'space'
p358
sS'trials.thisN'
p359
I41
sg20
g21
sS'trials.thisTrialN'
p360
I1
sg26
g27
sg28
g29
sa(dp361
g38
g43
sS'trials.thisIndex'
p362
g45
(g47
S'\n\x00\x00\x00'
tRp363
sg16
F0.76402997970581055
sg39
g162
sg22
g23
sS'trials.thisRepN'
p364
I2
sg25
g12
sg24
Nsg15
S'space'
p365
sS'trials.thisN'
p366
I42
sg20
g21
sS'trials.thisTrialN'
p367
I2
sg26
g27
sg28
g29
sa(dp368
g38
g43
sS'trials.thisIndex'
p369
g45
(g47
S'\r\x00\x00\x00'
tRp370
sg16
F1.9012320041656494
sg39
g122
sg22
g23
sS'trials.thisRepN'
p371
I2
sg25
g12
sg24
Nsg15
S'space'
p372
sS'trials.thisN'
p373
I43
sg20
g21
sS'trials.thisTrialN'
p374
I3
sg26
g27
sg28
g29
sa(dp375
g38
g55
sS'trials.thisIndex'
p376
g45
(g47
S'\x05\x00\x00\x00'
tRp377
sg16
F0.84735798835754395
sg39
g58
sg22
g23
sS'trials.thisRepN'
p378
I2
sg25
g12
sg24
Nsg15
S'space'
p379
sS'trials.thisN'
p380
I44
sg20
g21
sS'trials.thisTrialN'
p381
I4
sg26
g27
sg28
g29
sa(dp382
g38
g55
sS'trials.thisIndex'
p383
g45
(g47
S'\x01\x00\x00\x00'
tRp384
sg16
F0.83422994613647461
sg39
g138
sg22
g23
sS'trials.thisRepN'
p385
I2
sg25
g12
sg24
Nsg15
S'space'
p386
sS'trials.thisN'
p387
I45
sg20
g21
sS'trials.thisTrialN'
p388
I5
sg26
g27
sg28
g29
sa(dp389
g38
g55
sS'trials.thisIndex'
p390
g45
(g47
S'\x04\x00\x00\x00'
tRp391
sg16
F0.83241486549377441
sg39
g202
sg22
g23
sS'trials.thisRepN'
p392
I2
sg25
g12
sg24
Nsg15
S'space'
p393
sS'trials.thisN'
p394
I46
sg20
g21
sS'trials.thisTrialN'
p395
I6
sg26
g27
sg28
g29
sa(dp396
g38
g43
sS'trials.thisIndex'
p397
g45
(g47
S'\x08\x00\x00\x00'
tRp398
sg16
F1.087501049041748
sg39
g154
sg22
g23
sS'trials.thisRepN'
p399
I2
sg25
g12
sg24
Nsg15
S'space'
p400
sS'trials.thisN'
p401
I47
sg20
g21
sS'trials.thisTrialN'
p402
I7
sg26
g27
sg28
g29
sa(dp403
g38
g43
sS'trials.thisIndex'
p404
g45
(g47
S'\t\x00\x00\x00'
tRp405
sg16
F0.89954495429992676
sg39
g66
sg22
g23
sS'trials.thisRepN'
p406
I2
sg25
g12
sg24
Nsg15
S'space'
p407
sS'trials.thisN'
p408
I48
sg20
g21
sS'trials.thisTrialN'
p409
I8
sg26
g27
sg28
g29
sa(dp410
g38
g55
sS'trials.thisIndex'
p411
g45
(g47
S'\x06\x00\x00\x00'
tRp412
sg16
F0.96443605422973633
sg39
g146
sg22
g23
sS'trials.thisRepN'
p413
I2
sg25
g12
sg24
Nsg15
S'space'
p414
sS'trials.thisN'
p415
I49
sg20
g21
sS'trials.thisTrialN'
p416
I9
sg26
g27
sg28
g29
sa(dp417
g38
g43
sS'trials.thisIndex'
p418
g45
(g47
S'\x0e\x00\x00\x00'
tRp419
sg16
F0.86702299118041992
sg39
g49
sg22
g23
sS'trials.thisRepN'
p420
I2
sg25
g12
sg24
Nsg15
S'space'
p421
sS'trials.thisN'
p422
I50
sg20
g21
sS'trials.thisTrialN'
p423
I10
sg26
g27
sg28
g29
sa(dp424
g38
g43
sS'trials.thisIndex'
p425
g45
(g47
S'\x12\x00\x00\x00'
tRp426
sg16
F0.85020589828491211
sg39
g178
sg22
g23
sS'trials.thisRepN'
p427
I2
sg25
g12
sg24
Nsg15
S'space'
p428
sS'trials.thisN'
p429
I51
sg20
g21
sS'trials.thisTrialN'
p430
I11
sg26
g27
sg28
g29
sa(dp431
g38
g43
sS'trials.thisIndex'
p432
g45
(g47
S'\x0f\x00\x00\x00'
tRp433
sg16
F1.1147091388702393
sg39
g130
sg22
g23
sS'trials.thisRepN'
p434
I2
sg25
g12
sg24
Nsg15
S'space'
p435
sS'trials.thisN'
p436
I52
sg20
g21
sS'trials.thisTrialN'
p437
I12
sg26
g27
sg28
g29
sa(dp438
g38
g43
sS'trials.thisIndex'
p439
g45
(g47
S'\x0b\x00\x00\x00'
tRp440
sg16
F0.89792418479919434
sg39
g170
sg22
g23
sS'trials.thisRepN'
p441
I2
sg25
g12
sg24
Nsg15
S'space'
p442
sS'trials.thisN'
p443
I53
sg20
g21
sS'trials.thisTrialN'
p444
I13
sg26
g27
sg28
g29
sa(dp445
g38
g43
sS'trials.thisIndex'
p446
g45
(g47
S'\x0c\x00\x00\x00'
tRp447
sg16
F1.2374329566955566
sg39
g194
sg22
g23
sS'trials.thisRepN'
p448
I2
sg25
g12
sg24
Nsg15
S'space'
p449
sS'trials.thisN'
p450
I54
sg20
g21
sS'trials.thisTrialN'
p451
I14
sg26
g27
sg28
g29
sa(dp452
g38
g43
sS'trials.thisIndex'
p453
g45
(g47
S'\x11\x00\x00\x00'
tRp454
sg16
F1.0473828315734863
sg39
g106
sg22
g23
sS'trials.thisRepN'
p455
I2
sg25
g12
sg24
Nsg15
S'space'
p456
sS'trials.thisN'
p457
I55
sg20
g21
sS'trials.thisTrialN'
p458
I15
sg26
g27
sg28
g29
sa(dp459
g38
g43
sS'trials.thisIndex'
p460
g45
(g47
S'\x10\x00\x00\x00'
tRp461
sg16
F1.0175662040710449
sg39
g186
sg22
g23
sS'trials.thisRepN'
p462
I2
sg25
g12
sg24
Nsg15
S'space'
p463
sS'trials.thisN'
p464
I56
sg20
g21
sS'trials.thisTrialN'
p465
I16
sg26
g27
sg28
g29
sa(dp466
g38
g43
sS'trials.thisIndex'
p467
g45
(g47
S'\x13\x00\x00\x00'
tRp468
sg16
F0.90103316307067871
sg39
g114
sg22
g23
sS'trials.thisRepN'
p469
I2
sg25
g12
sg24
Nsg15
S'space'
p470
sS'trials.thisN'
p471
I57
sg20
g21
sS'trials.thisTrialN'
p472
I17
sg26
g27
sg28
g29
sa(dp473
g38
g55
sS'trials.thisIndex'
p474
g45
(g47
S'\x00\x00\x00\x00'
tRp475
sg16
F0.93673801422119141
sg39
g82
sg22
g23
sS'trials.thisRepN'
p476
I2
sg25
g12
sg24
Nsg15
S'space'
p477
sS'trials.thisN'
p478
I58
sg20
g21
sS'trials.thisTrialN'
p479
I18
sg26
g27
sg28
g29
sa(dp480
g38
g55
sS'trials.thisIndex'
p481
g45
(g47
S'\x02\x00\x00\x00'
tRp482
sg16
F0.77011799812316895
sg39
g98
sg22
g23
sS'trials.thisRepN'
p483
I2
sg25
g12
sg24
Nsg15
S'space'
p484
sS'trials.thisN'
p485
I59
sg20
g21
sS'trials.thisTrialN'
p486
I19
sg26
g27
sg28
g29
sasS'loops'
p487
(lp488
g1
(cpsychopy.data
TrialHandler
p489
g3
NtRp490
(dp491
S'origin'
p492
V<PsychoPy2experiment version="1.82.01" encoding="utf-8">\u000a  <Settings>\u000a    <Param name="Show mouse" val="False" valType="bool" updates="None"/>\u000a    <Param name="Data filename" val="'data/%s_%s_%s' %(expInfo['participant'], expName, expInfo['date'])" valType="code" updates="None"/>\u000a    <Param name="Monitor" val="testMonitor" valType="str" updates="None"/>\u000a    <Param name="Enable Escape" val="True" valType="bool" updates="None"/>\u000a    <Param name="color" val="$[0,0,0]" valType="str" updates="None"/>\u000a    <Param name="Window size (pixels)" val="[1440, 900]" valType="code" updates="None"/>\u000a    <Param name="Full-screen window" val="True" valType="bool" updates="None"/>\u000a    <Param name="colorSpace" val="rgb" valType="str" updates="None"/>\u000a    <Param name="Experiment info" val="{u'session': u'001', u'participant': u'test', u'condition': u'midd'}" valType="code" updates="None"/>\u000a    <Param name="Save csv file" val="False" valType="bool" updates="None"/>\u000a    <Param name="Show info dlg" val="True" valType="bool" updates="None"/>\u000a    <Param name="Save wide csv file" val="True" valType="bool" updates="None"/>\u000a    <Param name="Save psydat file" val="True" valType="bool" updates="None"/>\u000a    <Param name="expName" val="prodShadow" valType="str" updates="None"/>\u000a    <Param name="logging level" val="exp" valType="code" updates="None"/>\u000a    <Param name="blendMode" val="avg" valType="str" updates="None"/>\u000a    <Param name="Save excel file" val="False" valType="bool" updates="None"/>\u000a    <Param name="Units" val="use prefs" valType="str" updates="None"/>\u000a    <Param name="Save log file" val="False" valType="bool" updates="None"/>\u000a    <Param name="Screen" val="1" valType="num" updates="None"/>\u000a  </Settings>\u000a  <Routines>\u000a    <Routine name="trial">\u000a      <StaticComponent name="ISI">\u000a        <Param name="code" val="" valType="code" updates="None"/>\u000a        <Param name="name" val="ISI" valType="code" updates="None"/>\u000a        <Param name="stopVal" val="0.5" valType="code" updates="constant"/>\u000a        <Param name="durationEstim" val="" valType="code" updates="None"/>\u000a        <Param name="startEstim" val="" valType="code" updates="None"/>\u000a        <Param name="startType" val="time (s)" valType="str" updates="None"/>\u000a        <Param name="stopType" val="duration (s)" valType="str" updates="None"/>\u000a        <Param name="startVal" val="0.0" valType="code" updates="None"/>\u000a      </StaticComponent>\u000a      <KeyboardComponent name="key_resp_2">\u000a        <Param name="correctAns" val="" valType="str" updates="constant"/>\u000a        <Param name="storeCorrect" val="False" valType="bool" updates="constant"/>\u000a        <Param name="name" val="key_resp_2" valType="code" updates="None"/>\u000a        <Param name="stopVal" val="" valType="code" updates="constant"/>\u000a        <Param name="durationEstim" val="" valType="code" updates="None"/>\u000a        <Param name="forceEndRoutine" val="True" valType="bool" updates="constant"/>\u000a        <Param name="startEstim" val="" valType="code" updates="None"/>\u000a        <Param name="discard previous" val="True" valType="bool" updates="constant"/>\u000a        <Param name="startType" val="time (s)" valType="str" updates="None"/>\u000a        <Param name="allowedKeys" val="'space'" valType="code" updates="constant"/>\u000a        <Param name="stopType" val="duration (s)" valType="str" updates="None"/>\u000a        <Param name="startVal" val="1.0" valType="code" updates="None"/>\u000a        <Param name="store" val="first key" valType="str" updates="constant"/>\u000a      </KeyboardComponent>\u000a      <ImageComponent name="image">\u000a        <Param name="opacity" val="1" valType="code" updates="constant"/>\u000a        <Param name="flipVert" val="False" valType="bool" updates="constant"/>\u000a        <Param name="colorSpace" val="rgb" valType="str" updates="constant"/>\u000a        <Param name="name" val="image" valType="code" updates="None"/>\u000a        <Param name="color" val="$[1,1,1]" valType="str" updates="constant"/>\u000a        <Param name="stopVal" val="" valType="code" updates="constant"/>\u000a        <Param name="durationEstim" val="" valType="code" updates="None"/>\u000a        <Param name="mask" val="None" valType="str" updates="constant"/>\u000a        <Param name="pos" val="[0, 0]" valType="code" updates="constant"/>\u000a        <Param name="interpolate" val="linear" valType="str" updates="constant"/>\u000a        <Param name="startEstim" val="" valType="code" updates="None"/>\u000a        <Param name="units" val="from exp settings" valType="str" updates="None"/>\u000a        <Param name="texture resolution" val="128" valType="code" updates="constant"/>\u000a        <Param name="startType" val="time (s)" valType="str" updates="None"/>\u000a        <Param name="ori" val="0" valType="code" updates="constant"/>\u000a        <Param name="stopType" val="duration (s)" valType="str" updates="None"/>\u000a        <Param name="startVal" val="0.5" valType="code" updates="None"/>\u000a        <Param name="flipHoriz" val="False" valType="bool" updates="constant"/>\u000a        <Param name="image" val="$stim" valType="str" updates="set every repeat"/>\u000a        <Param name="size" val="[0.75, 0.95]" valType="code" updates="constant"/>\u000a      </ImageComponent>\u000a    </Routine>\u000a    <Routine name="ident">\u000a      <TextComponent name="text_3">\u000a        <Param name="opacity" val="1" valType="code" updates="constant"/>\u000a        <Param name="colorSpace" val="rgb" valType="str" updates="constant"/>\u000a        <Param name="name" val="text_3" valType="code" updates="None"/>\u000a        <Param name="wrapWidth" val="" valType="code" updates="constant"/>\u000a        <Param name="color" val="white" valType="str" updates="constant"/>\u000a        <Param name="text" val="Di tu nombre completo.&#10;&#10;Luego presiona la barra espaciadora para continuar." valType="str" updates="constant"/>\u000a        <Param name="stopVal" val="" valType="code" updates="constant"/>\u000a        <Param name="durationEstim" val="" valType="code" updates="None"/>\u000a        <Param name="pos" val="[0, 0]" valType="code" updates="constant"/>\u000a        <Param name="flip" val="" valType="str" updates="constant"/>\u000a        <Param name="startEstim" val="" valType="code" updates="None"/>\u000a        <Param name="units" val="from exp settings" valType="str" updates="None"/>\u000a        <Param name="startType" val="time (s)" valType="str" updates="None"/>\u000a        <Param name="ori" val="0" valType="code" updates="constant"/>\u000a        <Param name="stopType" val="duration (s)" valType="str" updates="None"/>\u000a        <Param name="startVal" val="0.0" valType="code" updates="None"/>\u000a        <Param name="font" val="Arial" valType="str" updates="constant"/>\u000a        <Param name="letterHeight" val="0.1" valType="code" updates="constant"/>\u000a      </TextComponent>\u000a      <KeyboardComponent name="key_resp_5">\u000a        <Param name="correctAns" val="" valType="str" updates="constant"/>\u000a        <Param name="storeCorrect" val="False" valType="bool" updates="constant"/>\u000a        <Param name="name" val="key_resp_5" valType="code" updates="None"/>\u000a        <Param name="stopVal" val="" valType="code" updates="constant"/>\u000a        <Param name="durationEstim" val="" valType="code" updates="None"/>\u000a        <Param name="forceEndRoutine" val="True" valType="bool" updates="constant"/>\u000a        <Param name="startEstim" val="" valType="code" updates="None"/>\u000a        <Param name="discard previous" val="True" valType="bool" updates="constant"/>\u000a        <Param name="startType" val="time (s)" valType="str" updates="None"/>\u000a        <Param name="allowedKeys" val="'space'" valType="code" updates="constant"/>\u000a        <Param name="stopType" val="duration (s)" valType="str" updates="None"/>\u000a        <Param name="startVal" val="0.0" valType="code" updates="None"/>\u000a        <Param name="store" val="nothing" valType="str" updates="constant"/>\u000a      </KeyboardComponent>\u000a    </Routine>\u000a    <Routine name="end">\u000a      <TextComponent name="text_2">\u000a        <Param name="opacity" val="1" valType="code" updates="constant"/>\u000a        <Param name="colorSpace" val="rgb" valType="str" updates="constant"/>\u000a        <Param name="name" val="text_2" valType="code" updates="None"/>\u000a        <Param name="wrapWidth" val="" valType="code" updates="constant"/>\u000a        <Param name="color" val="white" valType="str" updates="constant"/>\u000a        <Param name="text" val="Gracias por participar" valType="str" updates="constant"/>\u000a        <Param name="stopVal" val="5.0" valType="code" updates="constant"/>\u000a        <Param name="durationEstim" val="" valType="code" updates="None"/>\u000a        <Param name="pos" val="[0, 0]" valType="code" updates="constant"/>\u000a        <Param name="flip" val="" valType="str" updates="constant"/>\u000a        <Param name="startEstim" val="" valType="code" updates="None"/>\u000a        <Param name="units" val="from exp settings" valType="str" updates="None"/>\u000a        <Param name="startType" val="time (s)" valType="str" updates="None"/>\u000a        <Param name="ori" val="0" valType="code" updates="constant"/>\u000a        <Param name="stopType" val="duration (s)" valType="str" updates="None"/>\u000a        <Param name="startVal" val="0.0" valType="code" updates="None"/>\u000a        <Param name="font" val="Arial" valType="str" updates="constant"/>\u000a        <Param name="letterHeight" val="0.1" valType="code" updates="constant"/>\u000a      </TextComponent>\u000a      <KeyboardComponent name="key_resp_4">\u000a        <Param name="correctAns" val="" valType="str" updates="constant"/>\u000a        <Param name="storeCorrect" val="False" valType="bool" updates="constant"/>\u000a        <Param name="name" val="key_resp_4" valType="code" updates="None"/>\u000a        <Param name="stopVal" val="" valType="code" updates="constant"/>\u000a        <Param name="durationEstim" val="" valType="code" updates="None"/>\u000a        <Param name="forceEndRoutine" val="True" valType="bool" updates="constant"/>\u000a        <Param name="startEstim" val="" valType="code" updates="None"/>\u000a        <Param name="discard previous" val="True" valType="bool" updates="constant"/>\u000a        <Param name="startType" val="time (s)" valType="str" updates="None"/>\u000a        <Param name="allowedKeys" val="'space'" valType="code" updates="constant"/>\u000a        <Param name="stopType" val="duration (s)" valType="str" updates="None"/>\u000a        <Param name="startVal" val="0.0" valType="code" updates="None"/>\u000a        <Param name="store" val="last key" valType="str" updates="constant"/>\u000a      </KeyboardComponent>\u000a    </Routine>\u000a    <Routine name="instr">\u000a      <TextComponent name="text">\u000a        <Param name="opacity" val="1" valType="code" updates="constant"/>\u000a        <Param name="colorSpace" val="rgb" valType="str" updates="constant"/>\u000a        <Param name="name" val="text" valType="code" updates="None"/>\u000a        <Param name="wrapWidth" val="" valType="code" updates="constant"/>\u000a        <Param name="color" val="white" valType="str" updates="constant"/>\u000a        <Param name="text" val="Di el nombre de las imagenes que aparecen a continuacion&#10;&#10;Presiona la barra espaciadora para continuar." valType="str" updates="constant"/>\u000a        <Param name="stopVal" val="" valType="code" updates="constant"/>\u000a        <Param name="durationEstim" val="" valType="code" updates="None"/>\u000a        <Param name="pos" val="[0, 0]" valType="code" updates="constant"/>\u000a        <Param name="flip" val="" valType="str" updates="constant"/>\u000a        <Param name="startEstim" val="" valType="code" updates="None"/>\u000a        <Param name="units" val="from exp settings" valType="str" updates="None"/>\u000a        <Param name="startType" val="time (s)" valType="str" updates="None"/>\u000a        <Param name="ori" val="0" valType="code" updates="constant"/>\u000a        <Param name="stopType" val="duration (s)" valType="str" updates="None"/>\u000a        <Param name="startVal" val="0.0" valType="code" updates="None"/>\u000a        <Param name="font" val="Arial" valType="str" updates="constant"/>\u000a        <Param name="letterHeight" val="0.1" valType="code" updates="constant"/>\u000a      </TextComponent>\u000a      <KeyboardComponent name="key_resp_3">\u000a        <Param name="correctAns" val="" valType="str" updates="constant"/>\u000a        <Param name="storeCorrect" val="False" valType="bool" updates="constant"/>\u000a        <Param name="name" val="key_resp_3" valType="code" updates="None"/>\u000a        <Param name="stopVal" val="" valType="code" updates="constant"/>\u000a        <Param name="durationEstim" val="" valType="code" updates="None"/>\u000a        <Param name="forceEndRoutine" val="True" valType="bool" updates="constant"/>\u000a        <Param name="startEstim" val="" valType="code" updates="None"/>\u000a        <Param name="discard previous" val="True" valType="bool" updates="constant"/>\u000a        <Param name="startType" val="time (s)" valType="str" updates="None"/>\u000a        <Param name="allowedKeys" val="'space'" valType="code" updates="constant"/>\u000a        <Param name="stopType" val="duration (s)" valType="str" updates="None"/>\u000a        <Param name="startVal" val="2.0" valType="code" updates="None"/>\u000a        <Param name="store" val="nothing" valType="str" updates="constant"/>\u000a      </KeyboardComponent>\u000a    </Routine>\u000a  </Routines>\u000a  <Flow>\u000a    <Routine name="ident"/>\u000a    <Routine name="instr"/>\u000a    <LoopInitiator loopType="TrialHandler" name="trials">\u000a      <Param name="conditionsFile" val="trialTypes.xlsx" valType="str" updates="None"/>\u000a      <Param name="name" val="trials" valType="code" updates="None"/>\u000a      <Param name="isTrials" val="True" valType="bool" updates="None"/>\u000a      <Param name="random seed" val="" valType="code" updates="None"/>\u000a      <Param name="loopType" val="random" valType="str" updates="None"/>\u000a      <Param name="nReps" val="3" valType="code" updates="None"/>\u000a      <Param name="endPoints" val="[0, 1]" valType="num" updates="None"/>\u000a      <Param name="conditions" val="[{u'status': u'distractor', u'stim': u'stim/sombrero.png'}, {u'status': u'distractor', u'stim': u'stim/sol.png'}, {u'status': u'distractor', u'stim': u'stim/arbol.png'}, {u'status': u'distractor', u'stim': u'stim/lapiz.png'}, {u'status': u'distractor', u'stim': u'stim/manzana.png'}, {u'status': u'distractor', u'stim': u'stim/libro.png'}, {u'status': u'distractor', u'stim': u'stim/silla.png'}, {u'status': u'distractor', u'stim': u'stim/mochila.png'}, {u'status': u'target', u'stim': u'stim/bala.png'}, {u'status': u'target', u'stim': u'stim/bola.png'}, {u'status': u'target', u'stim': u'stim/caca.png'}, {u'status': u'target', u'stim': u'stim/coco.png'}, {u'status': u'target', u'stim': u'stim/dado.png'}, {u'status': u'target', u'stim': u'stim/dodo.png'}, {u'status': u'target', u'stim': u'stim/gato.png'}, {u'status': u'target', u'stim': u'stim/gota.png'}, {u'status': u'target', u'stim': u'stim/palo.png'}, {u'status': u'target', u'stim': u'stim/polo.png'}, {u'status': u'target', u'stim': u'stim/taco.png'}, {u'status': u'target', u'stim': u'stim/topo.png'}]" valType="str" updates="None"/>\u000a      <Param name="Selected rows" val="" valType="str" updates="None"/>\u000a    </LoopInitiator>\u000a    <Routine name="trial"/>\u000a    <LoopTerminator name="trials"/>\u000a    <Routine name="end"/>\u000a  </Flow>\u000a</PsychoPy2experiment>\u000a
p493
sS'thisTrial'
p494
(lp495
sS'_exp'
p496
I231541008
sg11
S'trials'
p497
sg6
g7
sS'thisRepN'
p498
I3
sg17
I01
sg18
g19
sS'data'
p499
g1
(cpsychopy.data
DataHandler
p500
c__builtin__
dict
p501
(dp502
S'ran'
p503
cnumpy.ma.core
_mareconstruct
p504
(cnumpy.ma.core
MaskedArray
p505
cnumpy
ndarray
p506
(I0
tp507
S'b'
tRp508
(I1
(I20
I3
tg46
(S'f4'
I0
I1
tRp509
(I3
S'<'
NNNI-1
I-1
I0
tbI00
S'\x00\x00\x80?\x00\x00\x80?\x00\x00\x80?\x00\x00\x80?\x00\x00\x80?\x00\x00\x80?\x00\x00\x80?\x00\x00\x80?\x00\x00\x80?\x00\x00\x80?\x00\x00\x80?\x00\x00\x80?\x00\x00\x80?\x00\x00\x80?\x00\x00\x80?\x00\x00\x80?\x00\x00\x80?\x00\x00\x80?\x00\x00\x80?\x00\x00\x80?\x00\x00\x80?\x00\x00\x80?\x00\x00\x80?\x00\x00\x80?\x00\x00\x80?\x00\x00\x80?\x00\x00\x80?\x00\x00\x80?\x00\x00\x80?\x00\x00\x80?\x00\x00\x80?\x00\x00\x80?\x00\x00\x80?\x00\x00\x80?\x00\x00\x80?\x00\x00\x80?\x00\x00\x80?\x00\x00\x80?\x00\x00\x80?\x00\x00\x80?\x00\x00\x80?\x00\x00\x80?\x00\x00\x80?\x00\x00\x80?\x00\x00\x80?\x00\x00\x80?\x00\x00\x80?\x00\x00\x80?\x00\x00\x80?\x00\x00\x80?\x00\x00\x80?\x00\x00\x80?\x00\x00\x80?\x00\x00\x80?\x00\x00\x80?\x00\x00\x80?\x00\x00\x80?\x00\x00\x80?\x00\x00\x80?\x00\x00\x80?'
S'\x00\x00\x00\x00\x00\x00\x00\x00\x00\x00\x00\x00\x00\x00\x00\x00\x00\x00\x00\x00\x00\x00\x00\x00\x00\x00\x00\x00\x00\x00\x00\x00\x00\x00\x00\x00\x00\x00\x00\x00\x00\x00\x00\x00\x00\x00\x00\x00\x00\x00\x00\x00\x00\x00\x00\x00\x00\x00\x00\x00'
Ntbsg16
g504
(g505
g506
g507
S'b'
tRp510
(I1
(I20
I3
tg509
I00
S'\xc0\xc0<?\x9c\xd1j?\x10\xceo?\x18\xa5;?|\xd0;?\x18\x90U?l\xadC?D=E?t&E?\xb8\n\x1e?>\x0f\x80?\xa4\xd6{?\xf4\xbee?Ddx?$\x19U?\xa8\r\x1e?<\xb7<?t\xecX?\xb0eU?fK\x8a?H\xe5v?\x08\xfdX?\xc0\x08j?\xc8\xf2n?\x93\x1fD@\x8c\xd2*?<3\x8b?\xf8[\x7f?\xe0bI?\x94Hf?\x18\xd9v?\xec6L?x\x97C?\xbah\x86?p\xc9e?\\\xdee?\x8a\x00\xaf?x5@?4d\x9e?/\xa5Y@^\xee\xdd?\x92[\xf3?0\xc7v?H3b?8\xf5]?\x8c[D?\x1c\x11c?\xca\xae\x8e?6X\x88?\x1c\x85\x86?\x9c?\x82?X\xb3\xf7>\x1cJa?\xa4\x10\x86?`\xa7H?XrQ?\x18\xa7Y?T\x90\xb7?Tys?\x1c\xaaf?'
S'\x00\x00\x00\x00\x00\x00\x00\x00\x00\x00\x00\x00\x00\x00\x00\x00\x00\x00\x00\x00\x00\x00\x00\x00\x00\x00\x00\x00\x00\x00\x00\x00\x00\x00\x00\x00\x00\x00\x00\x00\x00\x00\x00\x00\x00\x00\x00\x00\x00\x00\x00\x00\x00\x00\x00\x00\x00\x00\x00\x00'
NtbsS'order'
p511
g504
(g505
g506
g507
S'b'
tRp512
(I1
(I20
I3
tg509
I00
S'\x00\x00\x80@\x00\x00\x0cB\x00\x00hB\x00\x000A\x00\x00\xf8A\x00\x004B\x00\x00\xc0@\x00\x00\xb0A\x00\x00lB\x00\x00\xa0@\x00\x00\xf0A\x00\x00$B\x00\x00\x98A\x00\x00\xe0A\x00\x008B\x00\x00\x80?\x00\x00\x00B\x00\x000B\x00\x00@A\x00\x00\xa8A\x00\x00DB\x00\x00@@\x00\x00\xa0A\x00\x00 B\x00\x00PA\x00\x00\x08B\x00\x00<B\x00\x00\x00@\x00\x00\x14B\x00\x00@B\x00\x00`A\x00\x00\xb8A\x00\x00(B\x00\x00pA\x00\x00\xc8A\x00\x00TB\x00\x00\x90A\x00\x00\x1cB\x00\x00XB\x00\x00\x10A\x00\x00\x04B\x00\x00,B\x00\x00\x00\x00\x00\x00\xc0A\x00\x00HB\x00\x00 A\x00\x00\xd8A\x00\x00PB\x00\x00\x88A\x00\x00\x10B\x00\x00`B\x00\x00\xe0@\x00\x00\x18B\x00\x00\\B\x00\x00\x80A\x00\x00\xd0A\x00\x00LB\x00\x00\x00A\x00\x00\xe8A\x00\x00dB'
S'\x00\x00\x00\x00\x00\x00\x00\x00\x00\x00\x00\x00\x00\x00\x00\x00\x00\x00\x00\x00\x00\x00\x00\x00\x00\x00\x00\x00\x00\x00\x00\x00\x00\x00\x00\x00\x00\x00\x00\x00\x00\x00\x00\x00\x00\x00\x00\x00\x00\x00\x00\x00\x00\x00\x00\x00\x00\x00\x00\x00'
Ntbsg15
cnumpy.core.multiarray
_reconstruct
p513
(g506
(I0
tS'b'
tRp514
(I1
(I20
I3
tg46
(S'O4'
I0
I1
tRp515
(I3
S'|'
NNNI-1
I-1
I63
tbI00
(lp516
g84
ag316
ag477
ag140
ag288
ag386
ag100
ag225
ag484
ag92
ag281
ag358
ag204
ag267
ag393
ag60
ag295
ag379
ag148
ag218
ag414
ag76
ag211
ag351
ag156
ag309
ag400
ag68
ag330
ag407
ag164
ag232
ag365
ag172
ag246
ag442
ag196
ag344
ag449
ag124
ag302
ag372
ag51
ag239
ag421
ag132
ag260
ag435
ag188
ag323
ag463
ag108
ag337
ag456
ag180
ag253
ag428
ag116
ag274
ag470
atbstRp517
(dp518
S'isNumeric'
p519
(dp520
g503
I01
sg16
I01
sg511
I01
sg15
I00
ssg497
g490
sS'dataTypes'
p521
(lp522
g503
ag511
ag15
ag16
asS'dataShape'
p523
(lp524
I20
aI3
asbsS'method'
p525
S'random'
p526
sS'sequenceIndices'
p527
g513
(g506
(I0
tS'b'
tRp528
(I1
(I20
I3
tg47
I01
S'\x0e\x00\x00\x00\x05\x00\x00\x00\t\x00\x00\x00\x07\x00\x00\x00\x00\x00\x00\x00\x03\x00\x00\x00\x02\x00\x00\x00\x11\x00\x00\x00\x13\x00\x00\x00\r\x00\x00\x00\x0f\x00\x00\x00\x01\x00\x00\x00\x06\x00\x00\x00\x08\x00\x00\x00\n\x00\x00\x00\x0b\x00\x00\x00\x12\x00\x00\x00\x10\x00\x00\x00\x0c\x00\x00\x00\x04\x00\x00\x00\x07\x00\x00\x00\x06\x00\x00\x00\x02\x00\x00\x00\n\x00\x00\x00\x0e\x00\x00\x00\x0b\x00\x00\x00\x12\x00\x00\x00\x0f\x00\x00\x00\x04\x00\x00\x00\x13\x00\x00\x00\x03\x00\x00\x00\x01\x00\x00\x00\x05\x00\x00\x00\r\x00\x00\x00\x08\x00\x00\x00\x00\x00\x00\x00\x10\x00\x00\x00\t\x00\x00\x00\x11\x00\x00\x00\x0c\x00\x00\x00\x07\x00\x00\x00\x03\x00\x00\x00\n\x00\x00\x00\r\x00\x00\x00\x05\x00\x00\x00\x01\x00\x00\x00\x04\x00\x00\x00\x08\x00\x00\x00\t\x00\x00\x00\x06\x00\x00\x00\x0e\x00\x00\x00\x12\x00\x00\x00\x0f\x00\x00\x00\x0b\x00\x00\x00\x0c\x00\x00\x00\x11\x00\x00\x00\x10\x00\x00\x00\x13\x00\x00\x00\x00\x00\x00\x00\x02\x00\x00\x00'
tbsS'finished'
p529
I01
sS'nReps'
p530
I3
sS'nRemaining'
p531
I-1
sS'trialList'
p532
(lp533
g1
(cpsychopy.data
TrialType
p534
g501
(dp535
g38
g55
sg39
g82
stRp536
ag1
(g534
g501
(dp537
g38
g55
sg39
g138
stRp538
ag1
(g534
g501
(dp539
g38
g55
sg39
g98
stRp540
ag1
(g534
g501
(dp541
g38
g55
sg39
g90
stRp542
ag1
(g534
g501
(dp543
g38
g55
sg39
g202
stRp544
ag1
(g534
g501
(dp545
g38
g55
sg39
g58
stRp546
ag1
(g534
g501
(dp547
g38
g55
sg39
g146
stRp548
ag1
(g534
g501
(dp549
g38
g55
sg39
g74
stRp550
ag1
(g534
g501
(dp551
g38
g43
sg39
g154
stRp552
ag1
(g534
g501
(dp553
g38
g43
sg39
g66
stRp554
ag1
(g534
g501
(dp555
g38
g43
sg39
g162
stRp556
ag1
(g534
g501
(dp557
g38
g43
sg39
g170
stRp558
ag1
(g534
g501
(dp559
g38
g43
sg39
g194
stRp560
ag1
(g534
g501
(dp561
g38
g43
sg39
g122
stRp562
ag1
(g534
g501
(dp563
g38
g43
sg39
g49
stRp564
ag1
(g534
g501
(dp565
g38
g43
sg39
g130
stRp566
ag1
(g534
g501
(dp567
g38
g43
sg39
g186
stRp568
ag1
(g534
g501
(dp569
g38
g43
sg39
g106
stRp570
ag1
(g534
g501
(dp571
g38
g43
sg39
g178
stRp572
ag1
(g534
g501
(dp573
g38
g43
sg39
g114
stRp574
asS'seed'
p575
NsS'thisIndex'
p576
g482
sS'thisN'
p577
I60
sS'thisTrialN'
p578
I0
sS'nTotal'
p579
I60
sS'_warnUseOfNext'
p580
I01
sbasS'savePickle'
p581
I00
sb.